(lp1
(lp2
S'GG'
p3
aS'GC'
p4
aS'CG'
p5
aS'CC'
p6
aa(lp7
S'GA'
p8
aS'GT'
p9
aS'CA'
p10
aS'CT'
p11
aa(lp12
S'AG'
p13
aS'AC'
p14
aS'TG'
p15
aS'TC'
p16
aa(lp17
S'AA'
p18
aS'AT'
p19
aS'TA'
p20
aS'TT'
p21
aa.